target datalayout = "e-m:e-p270:32:32-p271:32:32-p272:64:64-i64:64-i128:128-f80:128-n8:16:32:64-S128"
target triple = "x86_64-pc-linux-gnu"

%struct.FFStream = type { %struct.AVStream, ptr, i32, ptr, i32, ptr, i32, %struct.anon.1, i32, i32, %struct.FFFrac, ptr, ptr, i32, i32, i64, i64, i32, i32, i32, i64, i64, i64, i32, i64, i64, i64, i32, i32, [17 x i64], [17 x i8], [17 x i64], i64, i8, i8, %struct.AVRational, %struct.AVProbeData, ptr, i64, i32, i32, i32, ptr, i32, i32, i64, i64, ptr, %struct.AVRational }
%struct.AVStream = type { ptr, i32, i32, ptr, ptr, %struct.AVRational, i64, i64, i64, i32, i32, %struct.AVRational, ptr, %struct.AVRational, %struct.AVPacket, i32, %struct.AVRational, i32 }
%struct.AVPacket = type { ptr, i64, i64, ptr, i32, i32, i32, ptr, i32, i64, i64, ptr, ptr, %struct.AVRational }
%struct.anon.1 = type { ptr, i32 }
%struct.FFFrac = type { i64, i64, i64 }
%struct.AVProbeData = type { ptr, ptr, i32, ptr }
%struct.AVRational = type { i32, i32 }

; Function Attrs: alwaysinline nounwind uwtable
define internal ptr @cffstream(ptr noundef %0) #3 {
  %2 = alloca ptr, align 8
  store ptr %0, ptr %2, align 8, !tbaa !4
  %3 = load ptr, ptr %2, align 8, !tbaa !4
  ret ptr %3
}

; Function Attrs: nounwind uwtable
define internal i64 @wrap_timestamp(ptr noundef %0, i64 noundef %1) #0 {
  %3 = alloca i64, align 8
  %4 = alloca ptr, align 8
  %5 = alloca i64, align 8
  %6 = alloca ptr, align 8
  %7 = alloca i32, align 4
  store ptr %0, ptr %4, align 8, !tbaa !4
  store i64 %1, ptr %5, align 8, !tbaa !9
  call void @llvm.lifetime.start.p0(i64 8, ptr %6) #13
  %8 = load ptr, ptr %4, align 8, !tbaa !4
  %9 = call ptr @cffstream(ptr noundef %8)
  store ptr %9, ptr %6, align 8, !tbaa !11
  %10 = load ptr, ptr %6, align 8, !tbaa !11
  %11 = getelementptr inbounds nuw %struct.FFStream, ptr %10, i32 0, i32 27
  %12 = load i32, ptr %11, align 8, !tbaa !13
  %13 = icmp ne i32 %12, 0
  br i1 %13, label %14, label %67

14:                                               ; preds = %2
  %15 = load ptr, ptr %4, align 8, !tbaa !4
  %16 = getelementptr inbounds nuw %struct.AVStream, ptr %15, i32 0, i32 17
  %17 = load i32, ptr %16, align 4, !tbaa !36
  %18 = icmp slt i32 %17, 64
  br i1 %18, label %19, label %67

19:                                               ; preds = %14
  %20 = load ptr, ptr %6, align 8, !tbaa !11
  %21 = getelementptr inbounds nuw %struct.FFStream, ptr %20, i32 0, i32 26
  %22 = load i64, ptr %21, align 8, !tbaa !37
  %23 = icmp ne i64 %22, -9223372036854775808
  br i1 %23, label %24, label %67

24:                                               ; preds = %19
  %25 = load i64, ptr %5, align 8, !tbaa !9
  %26 = icmp ne i64 %25, -9223372036854775808
  br i1 %26, label %27, label %67

27:                                               ; preds = %24
  %28 = load ptr, ptr %6, align 8, !tbaa !11
  %29 = getelementptr inbounds nuw %struct.FFStream, ptr %28, i32 0, i32 27
  %30 = load i32, ptr %29, align 8, !tbaa !13
  %31 = icmp eq i32 %30, 1
  br i1 %31, label %32, label %46

32:                                               ; preds = %27
  %33 = load i64, ptr %5, align 8, !tbaa !9
  %34 = load ptr, ptr %6, align 8, !tbaa !11
  %35 = getelementptr inbounds nuw %struct.FFStream, ptr %34, i32 0, i32 26
  %36 = load i64, ptr %35, align 8, !tbaa !37
  %37 = icmp slt i64 %33, %36
  br i1 %37, label %38, label %46

38:                                               ; preds = %32
  %39 = load i64, ptr %5, align 8, !tbaa !9
  %40 = load ptr, ptr %4, align 8, !tbaa !4
  %41 = getelementptr inbounds nuw %struct.AVStream, ptr %40, i32 0, i32 17
  %42 = load i32, ptr %41, align 4, !tbaa !36
  %43 = zext i32 %42 to i64
  %44 = shl i64 1, %43
  %45 = add i64 %39, %44
  store i64 %45, ptr %3, align 8
  store i32 1, ptr %7, align 4
  br label %69

46:                                               ; preds = %32, %27
  %47 = load ptr, ptr %6, align 8, !tbaa !11
  %48 = getelementptr inbounds nuw %struct.FFStream, ptr %47, i32 0, i32 27
  %49 = load i32, ptr %48, align 8, !tbaa !13
  %50 = icmp eq i32 %49, -1
  br i1 %50, label %51, label %65

51:                                               ; preds = %46
  %52 = load i64, ptr %5, align 8, !tbaa !9
  %53 = load ptr, ptr %6, align 8, !tbaa !11
  %54 = getelementptr inbounds nuw %struct.FFStream, ptr %53, i32 0, i32 26
  %55 = load i64, ptr %54, align 8, !tbaa !37
  %56 = icmp sge i64 %52, %55
  br i1 %56, label %57, label %65

57:                                               ; preds = %51
  %58 = load i64, ptr %5, align 8, !tbaa !9
  %59 = load ptr, ptr %4, align 8, !tbaa !4
  %60 = getelementptr inbounds nuw %struct.AVStream, ptr %59, i32 0, i32 17
  %61 = load i32, ptr %60, align 4, !tbaa !36
  %62 = zext i32 %61 to i64
  %63 = shl i64 1, %62
  %64 = sub i64 %58, %63
  store i64 %64, ptr %3, align 8
  store i32 1, ptr %7, align 4
  br label %69

65:                                               ; preds = %51, %46
  br label %66

66:                                               ; preds = %65
  br label %67

67:                                               ; preds = %66, %24, %19, %14, %2
  %68 = load i64, ptr %5, align 8, !tbaa !9
  store i64 %68, ptr %3, align 8
  store i32 1, ptr %7, align 4
  br label %69

69:                                               ; preds = %67, %57, %38
  call void @llvm.lifetime.end.p0(i64 8, ptr %6) #13
  %70 = load i64, ptr %3, align 8
  ret i64 %70
}

; Function Attrs: nounwind uwtable
define i64 @ff_wrap_timestamp(ptr noundef %0, i64 noundef %1) #0 {
  %3 = alloca ptr, align 8
  %4 = alloca i64, align 8
  store ptr %0, ptr %3, align 8, !tbaa !4
  store i64 %1, ptr %4, align 8, !tbaa !9
  %5 = load ptr, ptr %3, align 8, !tbaa !4
  %6 = load i64, ptr %4, align 8, !tbaa !9
  %7 = call i64 @wrap_timestamp(ptr noundef %5, i64 noundef %6)
  ret i64 %7
}