; Function Attrs: mustprogress nofree norecurse nosync nounwind willreturn memory(argmem: read) uwtable
define i64 @ff_wrap_timestamp(ptr noundef readonly captures(none) %0, i64 noundef %1) local_unnamed_addr #0 {
  %3 = getelementptr inbounds nuw i8, ptr %0, i64 424
  %4 = load i32, ptr %3, align 8, !tbaa !4
  %.not.i = icmp eq i32 %4, 0
  br i1 %.not.i, label %wrap_timestamp.exit, label %5

5:                                                ; preds = %2
  %6 = getelementptr inbounds nuw i8, ptr %0, i64 212
  %7 = load i32, ptr %6, align 4, !tbaa !31
  %8 = icmp slt i32 %7, 64
  br i1 %8, label %9, label %wrap_timestamp.exit

9:                                                ; preds = %5
  %10 = getelementptr inbounds nuw i8, ptr %0, i64 416
  %11 = load i64, ptr %10, align 8, !tbaa !32
  %12 = icmp ne i64 %11, -9223372036854775808
  %13 = icmp ne i64 %1, -9223372036854775808
  %or.cond.i = and i1 %13, %12
  br i1 %or.cond.i, label %14, label %wrap_timestamp.exit

14:                                               ; preds = %9
  %15 = icmp eq i32 %4, 1
  %16 = icmp slt i64 %1, %11
  %or.cond22.i = and i1 %15, %16
  br i1 %or.cond22.i, label %17, label %21

17:                                               ; preds = %14
  %18 = zext nneg i32 %7 to i64
  %19 = shl nuw i64 1, %18
  %20 = add i64 %19, %1
  br label %wrap_timestamp.exit

21:                                               ; preds = %14
  %22 = icmp ne i32 %4, -1
  %brmerge.i = or i1 %22, %16
  br i1 %brmerge.i, label %wrap_timestamp.exit, label %23

23:                                               ; preds = %21
  %24 = zext nneg i32 %7 to i64
  %.neg.i = shl nsw i64 -1, %24
  %25 = add i64 %.neg.i, %1
  br label %wrap_timestamp.exit

wrap_timestamp.exit:                              ; preds = %2, %5, %9, %17, %21, %23
  %.0.i = phi i64 [ %20, %17 ], [ %25, %23 ], [ %1, %21 ], [ %1, %9 ], [ %1, %5 ], [ %1, %2 ]
  ret i64 %.0.i
}